target datalayout = "e-m:e-p270:32:32-p271:32:32-p272:64:64-i64:64-i128:128-f80:128-n8:16:32:64-S128"
target triple = "x86_64-unknown-linux-gnu"

%"class.grpc_core::ConnectedSubchannel" = type { %"class.grpc_core::RefCounted", ptr, %"class.grpc_core::ChannelArgs", %"class.grpc_core::RefCountedPtr" }
%"class.grpc_core::RefCounted" = type { %"class.grpc_core::PolymorphicRefCount", %"class.grpc_core::RefCount" }
%"class.grpc_core::PolymorphicRefCount" = type { ptr }
%"class.grpc_core::RefCount" = type { %"struct.std::atomic.0" }
%"struct.std::atomic.0" = type { %"struct.std::__atomic_base.1" }
%"struct.std::__atomic_base.1" = type { i64 }
%"class.grpc_core::ChannelArgs" = type { %"class.grpc_core::AVL" }
%"class.grpc_core::AVL" = type { %"class.grpc_core::RefCountedPtr.2" }
%"class.grpc_core::RefCountedPtr.2" = type { ptr }
%"class.grpc_core::RefCountedPtr" = type { ptr }
%struct.grpc_closure = type { %union.anon, ptr, ptr, %union.anon.3 }
%union.anon = type { ptr }
%union.anon.3 = type { i64 }
%"class.absl::lts_20230802::Status" = type { i64 }
%struct.grpc_handler_private_op_data = type { ptr, %struct.grpc_closure }
%"class.grpc_core::RefCountedPtr.17" = type { ptr }
%"class.grpc_core::Timestamp" = type { i64 }
%"class.grpc_core::SubchannelCall" = type { %"class.grpc_core::RefCountedPtr.17", ptr, %struct.grpc_closure, ptr, ptr, %"class.grpc_core::Timestamp" }
%struct.grpc_transport_stream_op_batch = type { ptr, ptr, i8, %struct.grpc_handler_private_op_data }
%struct.grpc_transport_stream_op_batch_payload = type { %struct.anon.34, %struct.anon.35, %struct.anon.36, %struct.anon.37, %struct.anon.38, %struct.anon.39, %struct.anon.40, ptr }
%struct.anon.34 = type { ptr }
%struct.anon.35 = type { ptr, ptr }
%struct.anon.36 = type <{ ptr, i32, i8, [3 x i8] }>
%struct.anon.37 = type { ptr, ptr, ptr }
%struct.anon.38 = type { ptr, ptr, ptr, ptr }
%struct.anon.39 = type { ptr, ptr, ptr }
%struct.anon.40 = type <{ %"class.absl::lts_20230802::Status", i8, [7 x i8] }>

@.str.3 = private unnamed_addr constant [137 x i8] c"generated/home/dtcxzyw/WorkSpace/Projects/compilers/llvm-opt-benchmark/bench/grpc/grpc/src/core/ext/filters/client_channel/subchannel.cc\00", align 1
@.str.8 = private unnamed_addr constant [35 x i8] c"recv_trailing_metadata_ == nullptr\00", align 1

; Function Attrs: mustprogress nounwind uwtable
define linkonce_odr noundef ptr @_ZNK9grpc_core13RefCountedPtrINS_8channelz14SubchannelNodeEE3getEv(ptr noundef nonnull align 8 dereferenceable(8) %this) #5 comdat align 2 {
entry:
  %this.addr = alloca ptr, align 8
  store ptr %this, ptr %this.addr, align 8
  %this1 = load ptr, ptr %this.addr, align 8
  %value_ = getelementptr inbounds %"class.grpc_core::RefCountedPtr", ptr %this1, i32 0, i32 0
  %0 = load ptr, ptr %value_, align 8
  ret ptr %0
}

; Function Attrs: mustprogress nounwind uwtable
define linkonce_odr noundef ptr @_Z17grpc_closure_initP12grpc_closurePFvPvN4absl12lts_202308026StatusEES1_(ptr noundef %closure, ptr noundef %cb, ptr noundef %cb_arg) #5 comdat {
entry:
  %closure.addr = alloca ptr, align 8
  %cb.addr = alloca ptr, align 8
  %cb_arg.addr = alloca ptr, align 8
  store ptr %closure, ptr %closure.addr, align 8
  store ptr %cb, ptr %cb.addr, align 8
  store ptr %cb_arg, ptr %cb_arg.addr, align 8
  %0 = load ptr, ptr %cb.addr, align 8
  %1 = load ptr, ptr %closure.addr, align 8
  %cb1 = getelementptr inbounds %struct.grpc_closure, ptr %1, i32 0, i32 1
  store ptr %0, ptr %cb1, align 8
  %2 = load ptr, ptr %cb_arg.addr, align 8
  %3 = load ptr, ptr %closure.addr, align 8
  %cb_arg2 = getelementptr inbounds %struct.grpc_closure, ptr %3, i32 0, i32 2
  store ptr %2, ptr %cb_arg2, align 8
  %4 = load ptr, ptr %closure.addr, align 8
  %error_data = getelementptr inbounds %struct.grpc_closure, ptr %4, i32 0, i32 3
  store i64 0, ptr %error_data, align 8
  %5 = load ptr, ptr %closure.addr, align 8
  ret ptr %5
}

; Function Attrs: mustprogress uwtable
define linkonce_odr noundef ptr @_ZNK9grpc_core19ConnectedSubchannel19channelz_subchannelEv(ptr noundef nonnull align 8 dereferenceable(40) %this) #4 comdat align 2 {
entry:
  %this.addr = alloca ptr, align 8
  store ptr %this, ptr %this.addr, align 8
  %this1 = load ptr, ptr %this.addr, align 8
  %channelz_subchannel_ = getelementptr inbounds %"class.grpc_core::ConnectedSubchannel", ptr %this1, i32 0, i32 3
  %call = call noundef ptr @_ZNK9grpc_core13RefCountedPtrINS_8channelz14SubchannelNodeEE3getEv(ptr noundef nonnull align 8 dereferenceable(8) %channelz_subchannel_)
  ret ptr %call
}

; Function Attrs: mustprogress nounwind uwtable
define linkonce_odr noundef ptr @_ZNK9grpc_core13RefCountedPtrINS_19ConnectedSubchannelEEptEv(ptr noundef nonnull align 8 dereferenceable(8) %this) #5 comdat align 2 {
entry:
  %this.addr = alloca ptr, align 8
  store ptr %this, ptr %this.addr, align 8
  %this1 = load ptr, ptr %this.addr, align 8
  %value_ = getelementptr inbounds %"class.grpc_core::RefCountedPtr.17", ptr %this1, i32 0, i32 0
  %0 = load ptr, ptr %value_, align 8
  ret ptr %0
}

; Function Attrs: mustprogress uwtable
define void @_ZN9grpc_core14SubchannelCall34MaybeInterceptRecvTrailingMetadataEP30grpc_transport_stream_op_batch(ptr noundef nonnull align 8 dereferenceable(72) %this, ptr noundef %batch) #4 align 2 {
entry:
  %this.addr = alloca ptr, align 8
  %batch.addr = alloca ptr, align 8
  store ptr %this, ptr %this.addr, align 8
  store ptr %batch, ptr %batch.addr, align 8
  %this1 = load ptr, ptr %this.addr, align 8
  %0 = load ptr, ptr %batch.addr, align 8
  %recv_trailing_metadata = getelementptr inbounds %struct.grpc_transport_stream_op_batch, ptr %0, i32 0, i32 2
  %bf.load = load i8, ptr %recv_trailing_metadata, align 8
  %bf.lshr = lshr i8 %bf.load, 5
  %bf.clear = and i8 %bf.lshr, 1
  %bf.cast = trunc i8 %bf.clear to i1
  br i1 %bf.cast, label %if.end, label %if.then

if.then:                                          ; preds = %entry
  br label %return

if.end:                                           ; preds = %entry
  %connected_subchannel_ = getelementptr inbounds %"class.grpc_core::SubchannelCall", ptr %this1, i32 0, i32 0
  %call = call noundef ptr @_ZNK9grpc_core13RefCountedPtrINS_19ConnectedSubchannelEEptEv(ptr noundef nonnull align 8 dereferenceable(8) %connected_subchannel_)
  %call2 = call noundef ptr @_ZNK9grpc_core19ConnectedSubchannel19channelz_subchannelEv(ptr noundef nonnull align 8 dereferenceable(40) %call)
  %cmp = icmp eq ptr %call2, null
  br i1 %cmp, label %if.then3, label %if.end4

if.then3:                                         ; preds = %if.end
  br label %return

if.end4:                                          ; preds = %if.end
  %recv_trailing_metadata_ready_ = getelementptr inbounds %"class.grpc_core::SubchannelCall", ptr %this1, i32 0, i32 2
  %call5 = call noundef ptr @_Z17grpc_closure_initP12grpc_closurePFvPvN4absl12lts_202308026StatusEES1_(ptr noundef %recv_trailing_metadata_ready_, ptr noundef @_ZN9grpc_core14SubchannelCall25RecvTrailingMetadataReadyEPvN4absl12lts_202308026StatusE, ptr noundef %this1)
  br label %do.body

do.body:                                          ; preds = %if.end4
  %recv_trailing_metadata_ = getelementptr inbounds %"class.grpc_core::SubchannelCall", ptr %this1, i32 0, i32 4
  %1 = load ptr, ptr %recv_trailing_metadata_, align 8
  %cmp6 = icmp eq ptr %1, null
  %lnot = xor i1 %cmp6, true
  br i1 %lnot, label %if.then7, label %if.end8

if.then7:                                         ; preds = %do.body
  call void @gpr_assertion_failed(ptr noundef @.str.3, i32 noundef 278, ptr noundef @.str.8) #20
  unreachable

if.end8:                                          ; preds = %do.body
  br label %do.end

do.end:                                           ; preds = %if.end8
  %2 = load ptr, ptr %batch.addr, align 8
  %payload = getelementptr inbounds %struct.grpc_transport_stream_op_batch, ptr %2, i32 0, i32 1
  %3 = load ptr, ptr %payload, align 8
  %recv_trailing_metadata9 = getelementptr inbounds %struct.grpc_transport_stream_op_batch_payload, ptr %3, i32 0, i32 5
  %recv_trailing_metadata10 = getelementptr inbounds %struct.anon.39, ptr %recv_trailing_metadata9, i32 0, i32 0
  %4 = load ptr, ptr %recv_trailing_metadata10, align 8
  %recv_trailing_metadata_11 = getelementptr inbounds %"class.grpc_core::SubchannelCall", ptr %this1, i32 0, i32 4
  store ptr %4, ptr %recv_trailing_metadata_11, align 8
  %5 = load ptr, ptr %batch.addr, align 8
  %payload12 = getelementptr inbounds %struct.grpc_transport_stream_op_batch, ptr %5, i32 0, i32 1
  %6 = load ptr, ptr %payload12, align 8
  %recv_trailing_metadata13 = getelementptr inbounds %struct.grpc_transport_stream_op_batch_payload, ptr %6, i32 0, i32 5
  %recv_trailing_metadata_ready = getelementptr inbounds %struct.anon.39, ptr %recv_trailing_metadata13, i32 0, i32 2
  %7 = load ptr, ptr %recv_trailing_metadata_ready, align 8
  %original_recv_trailing_metadata_ = getelementptr inbounds %"class.grpc_core::SubchannelCall", ptr %this1, i32 0, i32 3
  store ptr %7, ptr %original_recv_trailing_metadata_, align 8
  %recv_trailing_metadata_ready_14 = getelementptr inbounds %"class.grpc_core::SubchannelCall", ptr %this1, i32 0, i32 2
  %8 = load ptr, ptr %batch.addr, align 8
  %payload15 = getelementptr inbounds %struct.grpc_transport_stream_op_batch, ptr %8, i32 0, i32 1
  %9 = load ptr, ptr %payload15, align 8
  %recv_trailing_metadata16 = getelementptr inbounds %struct.grpc_transport_stream_op_batch_payload, ptr %9, i32 0, i32 5
  %recv_trailing_metadata_ready17 = getelementptr inbounds %struct.anon.39, ptr %recv_trailing_metadata16, i32 0, i32 2
  store ptr %recv_trailing_metadata_ready_14, ptr %recv_trailing_metadata_ready17, align 8
  br label %return

return:                                           ; preds = %do.end, %if.then3, %if.then
  ret void
}