; Function Attrs: mustprogress uwtable
define void @_ZN9grpc_core14SubchannelCall34MaybeInterceptRecvTrailingMetadataEP30grpc_transport_stream_op_batch(ptr noundef nonnull align 8 dereferenceable(72) %this, ptr nocapture noundef readonly %batch) local_unnamed_addr #3 align 2 {
entry:
  %recv_trailing_metadata = getelementptr inbounds i8, ptr %batch, i64 16
  %bf.load = load i8, ptr %recv_trailing_metadata, align 8
  %0 = and i8 %bf.load, 32
  %bf.cast.not = icmp eq i8 %0, 0
  br i1 %bf.cast.not, label %return, label %if.end

if.end:                                           ; preds = %entry
  %1 = load ptr, ptr %this, align 8
  %channelz_subchannel_.i = getelementptr inbounds i8, ptr %1, i64 32
  %2 = load ptr, ptr %channelz_subchannel_.i, align 8
  %cmp = icmp eq ptr %2, null
  br i1 %cmp, label %return, label %if.end4

if.end4:                                          ; preds = %if.end
  %cb1.i = getelementptr inbounds i8, ptr %this, i64 24
  store ptr @_ZN9grpc_core14SubchannelCall25RecvTrailingMetadataReadyEPvN4absl12lts_202308026StatusE, ptr %cb1.i, align 8
  %cb_arg2.i = getelementptr inbounds i8, ptr %this, i64 32
  store ptr %this, ptr %cb_arg2.i, align 8
  %error_data.i = getelementptr inbounds i8, ptr %this, i64 40
  store i64 0, ptr %error_data.i, align 8
  %recv_trailing_metadata_ = getelementptr inbounds i8, ptr %this, i64 56
  %3 = load ptr, ptr %recv_trailing_metadata_, align 8
  %cmp6.not = icmp eq ptr %3, null
  br i1 %cmp6.not, label %do.end, label %if.then7

if.then7:                                         ; preds = %if.end4
  tail call void @gpr_assertion_failed(ptr noundef nonnull @.str.3, i32 noundef 278, ptr noundef nonnull @.str.8) #29
  unreachable

do.end:                                           ; preds = %if.end4
  %recv_trailing_metadata_ready_ = getelementptr inbounds i8, ptr %this, i64 16
  %payload = getelementptr inbounds i8, ptr %batch, i64 8
  %4 = load ptr, ptr %payload, align 8
  %recv_trailing_metadata9 = getelementptr inbounds i8, ptr %4, i64 96
  %5 = load ptr, ptr %recv_trailing_metadata9, align 8
  store ptr %5, ptr %recv_trailing_metadata_, align 8
  %6 = load ptr, ptr %payload, align 8
  %recv_trailing_metadata_ready = getelementptr inbounds i8, ptr %6, i64 112
  %7 = load ptr, ptr %recv_trailing_metadata_ready, align 8
  %original_recv_trailing_metadata_ = getelementptr inbounds i8, ptr %this, i64 48
  store ptr %7, ptr %original_recv_trailing_metadata_, align 8
  %8 = load ptr, ptr %payload, align 8
  %recv_trailing_metadata_ready17 = getelementptr inbounds i8, ptr %8, i64 112
  store ptr %recv_trailing_metadata_ready_, ptr %recv_trailing_metadata_ready17, align 8
  br label %return

return:                                           ; preds = %if.end, %entry, %do.end
  ret void
}